; Function Attrs: mustprogress uwtable
define internal fastcc void @"_ZNO8pybind116detail15argument_loaderIJEE4callINS_7capsuleENS0_9void_typeERZ22test_submodule_pytypesRNS_7module_EE4$_58EENSt9enable_ifIXntsr3std7is_voidIT_EE5valueESB_E4typeEOT1_"(ptr dead_on_unwind noalias writable align 8 %0) unnamed_addr #1 align 2 personality ptr @__gxx_personality_v0 {
  tail call void @llvm.experimental.noalias.scope.decl(metadata !3182)
  tail call void @llvm.experimental.noalias.scope.decl(metadata !3185)
  tail call void @_ZN8pybind115printILNS_19return_value_policyE1EJRA17_KcEEEvDpOT0_(ptr noundef nonnull align 1 dereferenceable(17) @.str.304), !noalias !3188
  store ptr null, ptr %0, align 8, !alias.scope !3188
  %2 = invoke ptr @PyCapsule_New(ptr noundef nonnull @"_ZZZ22test_submodule_pytypesRN8pybind117module_EENK4$_58clEvENUlvE_8__invokeEv", ptr noundef null, ptr noundef nonnull @_ZZN8pybind117capsuleC1EPFvvEENUlP7_objectE_8__invokeES4_)
          to label %3 unwind label %7, !noalias !3188

3:                                                ; preds = %1
  store ptr %2, ptr %0, align 8, !alias.scope !3188
  %.not.i.i.i = icmp eq ptr %2, null
  br i1 %.not.i.i.i, label %4, label %"_ZNO8pybind116detail15argument_loaderIJEE9call_implINS_7capsuleERZ22test_submodule_pytypesRNS_7module_EE4$_58TpTnmJENS0_9void_typeEEET_OT0_St16integer_sequenceImJXspT1_EEEOT2_.exit"

4:                                                ; preds = %3
  %5 = tail call ptr @__cxa_allocate_exception(i64 24) #25, !noalias !3188
  invoke void @_ZN8pybind1117error_already_setC2Ev(ptr noundef nonnull align 8 dereferenceable(24) %5)
          to label %6 unwind label %9, !noalias !3188

6:                                                ; preds = %4
  invoke void @__cxa_throw(ptr nonnull %5, ptr nonnull @_ZTIN8pybind1117error_already_setE, ptr nonnull @_ZN8pybind1117error_already_setD2Ev) #30
          to label %12 unwind label %7, !noalias !3188

7:                                                ; preds = %6, %1
  %8 = landingpad { ptr, i32 }
          cleanup
  br label %11

9:                                                ; preds = %4
  %10 = landingpad { ptr, i32 }
          cleanup
  tail call void @__cxa_free_exception(ptr %5) #25, !noalias !3188
  br label %11

11:                                               ; preds = %9, %7
  %.pn.i.i.i = phi { ptr, i32 } [ %8, %7 ], [ %10, %9 ]
  tail call void @_ZN8pybind116objectD2Ev(ptr noundef nonnull align 8 dereferenceable(8) %0) #25
  resume { ptr, i32 } %.pn.i.i.i

12:                                               ; preds = %6
  unreachable

"_ZNO8pybind116detail15argument_loaderIJEE9call_implINS_7capsuleERZ22test_submodule_pytypesRNS_7module_EE4$_58TpTnmJENS0_9void_typeEEET_OT0_St16integer_sequenceImJXspT1_EEEOT2_.exit": ; preds = %3
  ret void
}